target datalayout = "e-m:e-p270:32:32-p271:32:32-p272:64:64-i64:64-i128:128-f80:128-n8:16:32:64-S128"
target triple = "x86_64-pc-linux-gnu"

%struct.lstopo_color = type { i32, i32, i32, i32, %union.lstopo_color_private_u, ptr }
%union.lstopo_color_private_u = type { %struct.lstopo_color_private_ascii_s }
%struct.lstopo_color_private_ascii_s = type { i32 }

; Function Attrs: nounwind uwtable
define hidden void @lstopo_palette_set_color(ptr noundef %0, i32 noundef %1) #0 {
  %3 = alloca ptr, align 8
  %4 = alloca i32, align 4
  store ptr %0, ptr %3, align 8, !tbaa !20
  store i32 %1, ptr %4, align 4, !tbaa !18
  %5 = load i32, ptr %4, align 4, !tbaa !18
  %6 = lshr i32 %5, 16
  %7 = and i32 %6, 255
  %8 = load ptr, ptr %3, align 8, !tbaa !20
  %9 = getelementptr inbounds nuw %struct.lstopo_color, ptr %8, i32 0, i32 0
  store i32 %7, ptr %9, align 8, !tbaa !9
  %10 = load i32, ptr %4, align 4, !tbaa !18
  %11 = lshr i32 %10, 8
  %12 = and i32 %11, 255
  %13 = load ptr, ptr %3, align 8, !tbaa !20
  %14 = getelementptr inbounds nuw %struct.lstopo_color, ptr %13, i32 0, i32 1
  store i32 %12, ptr %14, align 4, !tbaa !13
  %15 = load i32, ptr %4, align 4, !tbaa !18
  %16 = lshr i32 %15, 0
  %17 = and i32 %16, 255
  %18 = load ptr, ptr %3, align 8, !tbaa !20
  %19 = getelementptr inbounds nuw %struct.lstopo_color, ptr %18, i32 0, i32 2
  store i32 %17, ptr %19, align 8, !tbaa !14
  ret void
}