; Function Attrs: mustprogress nofree norecurse nosync nounwind willreturn memory(argmem: write) uwtable
define hidden void @lstopo_palette_set_color(ptr noundef writeonly captures(none) initializes((0, 12)) %0, i32 noundef %1) local_unnamed_addr #6 {
  %3 = lshr i32 %1, 16
  %4 = and i32 %3, 255
  store i32 %4, ptr %0, align 8, !tbaa !22
  %5 = lshr i32 %1, 8
  %6 = and i32 %5, 255
  %7 = getelementptr inbounds nuw i8, ptr %0, i64 4
  store i32 %6, ptr %7, align 4, !tbaa !25
  %8 = and i32 %1, 255
  %9 = getelementptr inbounds nuw i8, ptr %0, i64 8
  store i32 %8, ptr %9, align 8, !tbaa !26
  ret void
}